; ModuleID = '15/378.c'
source_filename = "15/378.c"
target datalayout = "e-m:e-p270:32:32-p271:32:32-p272:64:64-i64:64-f80:128-n8:16:32:64-S128"
target triple = "x86_64-pc-linux-gnu"

@.str = private unnamed_addr constant [3 x i8] c"%d\00", align 1

; Function Attrs: noinline nounwind uwtable
define dso_local i32 @main() #0 {
  %1 = alloca i32, align 4
  %2 = alloca [500 x [500 x i32]], align 16
  %3 = alloca i32, align 4
  %4 = alloca i32, align 4
  %5 = alloca i32, align 4
  %6 = alloca [3 x i32], align 4
  %7 = alloca [3 x i32], align 4
  %8 = alloca i32, align 4
  store i32 0, i32* %1, align 4
  %9 = call i32 (i8*, ...) @__isoc99_scanf(i8* getelementptr inbounds ([3 x i8], [3 x i8]* @.str, i64 0, i64 0), i32* %5)
  store i32 1, i32* %3, align 4
  br label %10

10:                                               ; preds = %31, %0
  %11 = load i32, i32* %3, align 4
  %12 = load i32, i32* %5, align 4
  %13 = icmp sle i32 %11, %12
  br i1 %13, label %14, label %34

14:                                               ; preds = %10
  store i32 1, i32* %4, align 4
  br label %15

15:                                               ; preds = %27, %14
  %16 = load i32, i32* %4, align 4
  %17 = load i32, i32* %5, align 4
  %18 = icmp sle i32 %16, %17
  br i1 %18, label %19, label %30

19:                                               ; preds = %15
  %20 = load i32, i32* %3, align 4
  %21 = sext i32 %20 to i64
  %22 = getelementptr inbounds [500 x [500 x i32]], [500 x [500 x i32]]* %2, i64 0, i64 %21
  %23 = load i32, i32* %4, align 4
  %24 = sext i32 %23 to i64
  %25 = getelementptr inbounds [500 x i32], [500 x i32]* %22, i64 0, i64 %24
  %26 = call i32 (i8*, ...) @__isoc99_scanf(i8* getelementptr inbounds ([3 x i8], [3 x i8]* @.str, i64 0, i64 0), i32* %25)
  br label %27

27:                                               ; preds = %19
  %28 = load i32, i32* %4, align 4
  %29 = add nsw i32 %28, 1
  store i32 %29, i32* %4, align 4
  br label %15

30:                                               ; preds = %15
  br label %31

31:                                               ; preds = %30
  %32 = load i32, i32* %3, align 4
  %33 = add nsw i32 %32, 1
  store i32 %33, i32* %3, align 4
  br label %10

34:                                               ; preds = %10
  store i32 1, i32* %3, align 4
  br label %35

35:                                               ; preds = %63, %34
  %36 = load i32, i32* %3, align 4
  %37 = load i32, i32* %5, align 4
  %38 = icmp sle i32 %36, %37
  br i1 %38, label %39, label %66

39:                                               ; preds = %35
  store i32 1, i32* %4, align 4
  br label %40

40:                                               ; preds = %59, %39
  %41 = load i32, i32* %4, align 4
  %42 = load i32, i32* %5, align 4
  %43 = icmp sle i32 %41, %42
  br i1 %43, label %44, label %62

44:                                               ; preds = %40
  %45 = load i32, i32* %3, align 4
  %46 = sext i32 %45 to i64
  %47 = getelementptr inbounds [500 x [500 x i32]], [500 x [500 x i32]]* %2, i64 0, i64 %46
  %48 = load i32, i32* %4, align 4
  %49 = sext i32 %48 to i64
  %50 = getelementptr inbounds [500 x i32], [500 x i32]* %47, i64 0, i64 %49
  %51 = load i32, i32* %50, align 4
  %52 = icmp eq i32 %51, 0
  br i1 %52, label %53, label %58

53:                                               ; preds = %44
  %54 = load i32, i32* %3, align 4
  %55 = getelementptr inbounds [3 x i32], [3 x i32]* %6, i64 0, i64 1
  store i32 %54, i32* %55, align 4
  %56 = load i32, i32* %4, align 4
  %57 = getelementptr inbounds [3 x i32], [3 x i32]* %7, i64 0, i64 1
  store i32 %56, i32* %57, align 4
  br label %62

58:                                               ; preds = %44
  br label %59

59:                                               ; preds = %58
  %60 = load i32, i32* %4, align 4
  %61 = add nsw i32 %60, 1
  store i32 %61, i32* %4, align 4
  br label %40

62:                                               ; preds = %53, %40
  br label %63

63:                                               ; preds = %62
  %64 = load i32, i32* %3, align 4
  %65 = add nsw i32 %64, 1
  store i32 %65, i32* %3, align 4
  br label %35

66:                                               ; preds = %35
  %67 = load i32, i32* %5, align 4
  store i32 %67, i32* %3, align 4
  br label %68

68:                                               ; preds = %95, %66
  %69 = load i32, i32* %3, align 4
  %70 = icmp sge i32 %69, 1
  br i1 %70, label %71, label %98

71:                                               ; preds = %68
  %72 = load i32, i32* %5, align 4
  store i32 %72, i32* %4, align 4
  br label %73

73:                                               ; preds = %91, %71
  %74 = load i32, i32* %4, align 4
  %75 = icmp sge i32 %74, 1
  br i1 %75, label %76, label %94

76:                                               ; preds = %73
  %77 = load i32, i32* %3, align 4
  %78 = sext i32 %77 to i64
  %79 = getelementptr inbounds [500 x [500 x i32]], [500 x [500 x i32]]* %2, i64 0, i64 %78
  %80 = load i32, i32* %4, align 4
  %81 = sext i32 %80 to i64
  %82 = getelementptr inbounds [500 x i32], [500 x i32]* %79, i64 0, i64 %81
  %83 = load i32, i32* %82, align 4
  %84 = icmp eq i32 %83, 0
  br i1 %84, label %85, label %90

85:                                               ; preds = %76
  %86 = load i32, i32* %3, align 4
  %87 = getelementptr inbounds [3 x i32], [3 x i32]* %6, i64 0, i64 2
  store i32 %86, i32* %87, align 4
  %88 = load i32, i32* %4, align 4
  %89 = getelementptr inbounds [3 x i32], [3 x i32]* %7, i64 0, i64 2
  store i32 %88, i32* %89, align 4
  br label %94

90:                                               ; preds = %76
  br label %91

91:                                               ; preds = %90
  %92 = load i32, i32* %4, align 4
  %93 = add nsw i32 %92, -1
  store i32 %93, i32* %4, align 4
  br label %73

94:                                               ; preds = %85, %73
  br label %95

95:                                               ; preds = %94
  %96 = load i32, i32* %3, align 4
  %97 = add nsw i32 %96, -1
  store i32 %97, i32* %3, align 4
  br label %68

98:                                               ; preds = %68
  %99 = getelementptr inbounds [3 x i32], [3 x i32]* %6, i64 0, i64 1
  %100 = load i32, i32* %99, align 4
  %101 = getelementptr inbounds [3 x i32], [3 x i32]* %6, i64 0, i64 2
  %102 = load i32, i32* %101, align 4
  %103 = sub nsw i32 %100, %102
  %104 = sub nsw i32 %103, 1
  %105 = getelementptr inbounds [3 x i32], [3 x i32]* %7, i64 0, i64 2
  %106 = load i32, i32* %105, align 4
  %107 = getelementptr inbounds [3 x i32], [3 x i32]* %7, i64 0, i64 1
  %108 = load i32, i32* %107, align 4
  %109 = sub nsw i32 %106, %108
  %110 = sub nsw i32 %109, 1
  %111 = mul nsw i32 %104, %110
  store i32 %111, i32* %8, align 4
  %112 = load i32, i32* %8, align 4
  %113 = call i32 (i8*, ...) @printf(i8* getelementptr inbounds ([3 x i8], [3 x i8]* @.str, i64 0, i64 0), i32 %112)
  ret i32 0
}

declare dso_local i32 @__isoc99_scanf(i8*, ...) #1

declare dso_local i32 @printf(i8*, ...) #1


!llvm.module.flags = !{!0}
!llvm.ident = !{!1}

!0 = !{i32 1, !"wchar_size", i32 4}
!1 = !{!"clang version 10.0.0-4ubuntu1 "}
